target datalayout = "e-m:e-p270:32:32-p271:32:32-p272:64:64-i64:64-i128:128-f80:128-n8:16:32:64-S128"
target triple = "x86_64-pc-linux-gnu"

@hf_gsm_a_rr_tchf_acchs = internal global i32 0, align 4
@hf_gsm_a_rr_tch_acch = internal global i32 0, align 4
@hf_gsm_a_rr_sdcch4_sdcchc4_cbch = internal global i32 0, align 4
@hf_gsm_a_rr_sdcch8_sdcchc8_cbch = internal global i32 0, align 4
@hf_gsm_a_rr_unknown_channel_info = internal global i32 0, align 4
@hf_gsm_a_rr_subchannel = internal global i32 0, align 4
@hf_gsm_a_rr_timeslot = internal global i32 0, align 4
@hf_gsm_a_rr_training_sequence = internal global i32 0, align 4
@hf_gsm_a_rr_hopping_channel = internal global i32 0, align 4
@hf_gsm_a_rr_hopping_channel_maio = internal global i32 0, align 4
@hf_gsm_a_rr_hsn = internal global i32 0, align 4
@hf_gsm_a_rr_spare = internal global i32 0, align 4
@hf_gsm_a_rr_single_channel_arfcn = internal global i32 0, align 4

; Function Attrs: null_pointer_is_valid sspstrong uwtable
define zeroext i16 @de_rr_ch_dsc(ptr noundef %0, ptr noundef %1, ptr noundef %2, i32 noundef %3, i32 noundef %4, ptr noundef %5, i32 noundef %6) #1 {
  %8 = alloca ptr, align 8
  %9 = alloca ptr, align 8
  %10 = alloca ptr, align 8
  %11 = alloca i32, align 4
  %12 = alloca i32, align 4
  %13 = alloca ptr, align 8
  %14 = alloca i32, align 4
  %15 = alloca i32, align 4
  %16 = alloca i8, align 1
  %17 = alloca i8, align 1
  %18 = alloca i16, align 2
  %19 = alloca i16, align 2
  %20 = alloca i16, align 2
  %21 = alloca i32, align 4
  store ptr %0, ptr %8, align 8
  store ptr %1, ptr %9, align 8
  store ptr %2, ptr %10, align 8
  store i32 %3, ptr %11, align 4
  store i32 %4, ptr %12, align 4
  store ptr %5, ptr %13, align 8
  store i32 %6, ptr %14, align 4
  call void @llvm.lifetime.start.p0(i64 4, ptr %15) #11
  call void @llvm.lifetime.start.p0(i64 1, ptr %16) #11
  call void @llvm.lifetime.start.p0(i64 1, ptr %17) #11
  call void @llvm.lifetime.start.p0(i64 2, ptr %18) #11
  call void @llvm.lifetime.start.p0(i64 2, ptr %19) #11
  call void @llvm.lifetime.start.p0(i64 2, ptr %20) #11
  call void @llvm.lifetime.start.p0(i64 4, ptr %21) #11
  %22 = load i32, ptr %11, align 4
  store i32 %22, ptr %15, align 4
  %23 = load ptr, ptr %8, align 8
  %24 = load i32, ptr %15, align 4
  %25 = call zeroext i8 @tvb_get_uint8(ptr noundef %23, i32 noundef %24)
  store i8 %25, ptr %16, align 1
  %26 = load i8, ptr %16, align 1
  %27 = zext i8 %26 to i32
  %28 = and i32 %27, 248
  %29 = icmp eq i32 %28, 8
  br i1 %29, label %30, label %36

30:                                               ; preds = %7
  %31 = load ptr, ptr %9, align 8
  %32 = load i32, ptr @hf_gsm_a_rr_tchf_acchs, align 4
  %33 = load ptr, ptr %8, align 8
  %34 = load i32, ptr %15, align 4
  %35 = call ptr @proto_tree_add_item(ptr noundef %31, i32 noundef %32, ptr noundef %33, i32 noundef %34, i32 noundef 1, i32 noundef 0)
  br label %90

36:                                               ; preds = %7
  %37 = load i8, ptr %16, align 1
  %38 = zext i8 %37 to i32
  %39 = and i32 %38, 240
  %40 = icmp eq i32 %39, 16
  br i1 %40, label %41, label %48

41:                                               ; preds = %36
  %42 = load i32, ptr @hf_gsm_a_rr_tch_acch, align 4
  store i32 %42, ptr %21, align 4
  %43 = load i8, ptr %16, align 1
  %44 = zext i8 %43 to i32
  %45 = and i32 %44, 8
  %46 = ashr i32 %45, 3
  %47 = trunc i32 %46 to i8
  store i8 %47, ptr %17, align 1
  br label %77

48:                                               ; preds = %36
  %49 = load i8, ptr %16, align 1
  %50 = zext i8 %49 to i32
  %51 = and i32 %50, 224
  %52 = icmp eq i32 %51, 32
  br i1 %52, label %53, label %60

53:                                               ; preds = %48
  %54 = load i32, ptr @hf_gsm_a_rr_sdcch4_sdcchc4_cbch, align 4
  store i32 %54, ptr %21, align 4
  %55 = load i8, ptr %16, align 1
  %56 = zext i8 %55 to i32
  %57 = and i32 %56, 24
  %58 = ashr i32 %57, 3
  %59 = trunc i32 %58 to i8
  store i8 %59, ptr %17, align 1
  br label %76

60:                                               ; preds = %48
  %61 = load i8, ptr %16, align 1
  %62 = zext i8 %61 to i32
  %63 = and i32 %62, 192
  %64 = icmp eq i32 %63, 64
  br i1 %64, label %65, label %72

65:                                               ; preds = %60
  %66 = load i32, ptr @hf_gsm_a_rr_sdcch8_sdcchc8_cbch, align 4
  store i32 %66, ptr %21, align 4
  %67 = load i8, ptr %16, align 1
  %68 = zext i8 %67 to i32
  %69 = and i32 %68, 56
  %70 = ashr i32 %69, 3
  %71 = trunc i32 %70 to i8
  store i8 %71, ptr %17, align 1
  br label %75

72:                                               ; preds = %60
  %73 = load i32, ptr @hf_gsm_a_rr_unknown_channel_info, align 4
  store i32 %73, ptr %21, align 4
  %74 = load i8, ptr %16, align 1
  store i8 %74, ptr %17, align 1
  br label %75

75:                                               ; preds = %72, %65
  br label %76

76:                                               ; preds = %75, %53
  br label %77

77:                                               ; preds = %76, %41
  %78 = load ptr, ptr %9, align 8
  %79 = load i32, ptr %21, align 4
  %80 = load ptr, ptr %8, align 8
  %81 = load i32, ptr %15, align 4
  %82 = call ptr @proto_tree_add_item(ptr noundef %78, i32 noundef %79, ptr noundef %80, i32 noundef %81, i32 noundef 1, i32 noundef 0)
  %83 = load ptr, ptr %9, align 8
  %84 = load i32, ptr @hf_gsm_a_rr_subchannel, align 4
  %85 = load ptr, ptr %8, align 8
  %86 = load i32, ptr %15, align 4
  %87 = load i8, ptr %17, align 1
  %88 = zext i8 %87 to i32
  %89 = call ptr @proto_tree_add_uint(ptr noundef %83, i32 noundef %84, ptr noundef %85, i32 noundef %86, i32 noundef 1, i32 noundef %88)
  br label %90

90:                                               ; preds = %77, %30
  %91 = load ptr, ptr %9, align 8
  %92 = load i32, ptr @hf_gsm_a_rr_timeslot, align 4
  %93 = load ptr, ptr %8, align 8
  %94 = load i32, ptr %15, align 4
  %95 = call ptr @proto_tree_add_item(ptr noundef %91, i32 noundef %92, ptr noundef %93, i32 noundef %94, i32 noundef 1, i32 noundef 0)
  %96 = load i32, ptr %15, align 4
  %97 = add i32 %96, 1
  store i32 %97, ptr %15, align 4
  %98 = load ptr, ptr %8, align 8
  %99 = load i32, ptr %15, align 4
  %100 = call zeroext i8 @tvb_get_uint8(ptr noundef %98, i32 noundef %99)
  store i8 %100, ptr %16, align 1
  %101 = load ptr, ptr %9, align 8
  %102 = load i32, ptr @hf_gsm_a_rr_training_sequence, align 4
  %103 = load ptr, ptr %8, align 8
  %104 = load i32, ptr %15, align 4
  %105 = call ptr @proto_tree_add_item(ptr noundef %101, i32 noundef %102, ptr noundef %103, i32 noundef %104, i32 noundef 1, i32 noundef 0)
  %106 = load ptr, ptr %9, align 8
  %107 = load i32, ptr @hf_gsm_a_rr_hopping_channel, align 4
  %108 = load ptr, ptr %8, align 8
  %109 = load i32, ptr %15, align 4
  %110 = call ptr @proto_tree_add_item(ptr noundef %106, i32 noundef %107, ptr noundef %108, i32 noundef %109, i32 noundef 1, i32 noundef 0)
  %111 = load i8, ptr %16, align 1
  %112 = zext i8 %111 to i32
  %113 = and i32 %112, 16
  %114 = icmp eq i32 %113, 16
  br i1 %114, label %115, label %150

115:                                              ; preds = %90
  %116 = load i8, ptr %16, align 1
  %117 = zext i8 %116 to i32
  %118 = and i32 %117, 15
  %119 = shl i32 %118, 2
  %120 = load ptr, ptr %8, align 8
  %121 = load i32, ptr %15, align 4
  %122 = add i32 %121, 1
  %123 = call zeroext i8 @tvb_get_uint8(ptr noundef %120, i32 noundef %122)
  %124 = zext i8 %123 to i32
  %125 = and i32 %124, 192
  %126 = ashr i32 %125, 6
  %127 = or i32 %119, %126
  %128 = trunc i32 %127 to i16
  store i16 %128, ptr %20, align 2
  %129 = load ptr, ptr %8, align 8
  %130 = load i32, ptr %15, align 4
  %131 = add i32 %130, 1
  %132 = call zeroext i8 @tvb_get_uint8(ptr noundef %129, i32 noundef %131)
  %133 = zext i8 %132 to i32
  %134 = and i32 %133, 63
  %135 = trunc i32 %134 to i16
  store i16 %135, ptr %19, align 2
  %136 = load ptr, ptr %9, align 8
  %137 = load i32, ptr @hf_gsm_a_rr_hopping_channel_maio, align 4
  %138 = load ptr, ptr %8, align 8
  %139 = load i32, ptr %15, align 4
  %140 = load i16, ptr %20, align 2
  %141 = zext i16 %140 to i32
  %142 = call ptr @proto_tree_add_uint(ptr noundef %136, i32 noundef %137, ptr noundef %138, i32 noundef %139, i32 noundef 2, i32 noundef %141)
  %143 = load ptr, ptr %9, align 8
  %144 = load i32, ptr @hf_gsm_a_rr_hsn, align 4
  %145 = load ptr, ptr %8, align 8
  %146 = load i32, ptr %15, align 4
  %147 = load i16, ptr %19, align 2
  %148 = zext i16 %147 to i32
  %149 = call ptr @proto_tree_add_uint(ptr noundef %143, i32 noundef %144, ptr noundef %145, i32 noundef %146, i32 noundef 2, i32 noundef %148)
  br label %176

150:                                              ; preds = %90
  %151 = load i8, ptr %16, align 1
  %152 = zext i8 %151 to i32
  %153 = and i32 %152, 3
  %154 = shl i32 %153, 8
  %155 = load ptr, ptr %8, align 8
  %156 = load i32, ptr %15, align 4
  %157 = add i32 %156, 1
  %158 = call zeroext i8 @tvb_get_uint8(ptr noundef %155, i32 noundef %157)
  %159 = zext i8 %158 to i32
  %160 = or i32 %154, %159
  %161 = trunc i32 %160 to i16
  store i16 %161, ptr %18, align 2
  %162 = load ptr, ptr %9, align 8
  %163 = load i32, ptr @hf_gsm_a_rr_spare, align 4
  %164 = load ptr, ptr %8, align 8
  %165 = load i32, ptr %15, align 4
  %166 = shl i32 %165, 3
  %167 = add i32 %166, 4
  %168 = call ptr @proto_tree_add_bits_item(ptr noundef %162, i32 noundef %163, ptr noundef %164, i32 noundef %167, i32 noundef 2, i32 noundef 0)
  %169 = load ptr, ptr %9, align 8
  %170 = load i32, ptr @hf_gsm_a_rr_single_channel_arfcn, align 4
  %171 = load ptr, ptr %8, align 8
  %172 = load i32, ptr %15, align 4
  %173 = load i16, ptr %18, align 2
  %174 = zext i16 %173 to i32
  %175 = call ptr @proto_tree_add_uint(ptr noundef %169, i32 noundef %170, ptr noundef %171, i32 noundef %172, i32 noundef 2, i32 noundef %174)
  br label %176

176:                                              ; preds = %150, %115
  %177 = load i32, ptr %15, align 4
  %178 = add i32 %177, 2
  store i32 %178, ptr %15, align 4
  %179 = load i32, ptr %15, align 4
  %180 = load i32, ptr %11, align 4
  %181 = sub i32 %179, %180
  %182 = trunc i32 %181 to i16
  call void @llvm.lifetime.end.p0(i64 4, ptr %21) #11
  call void @llvm.lifetime.end.p0(i64 2, ptr %20) #11
  call void @llvm.lifetime.end.p0(i64 2, ptr %19) #11
  call void @llvm.lifetime.end.p0(i64 2, ptr %18) #11
  call void @llvm.lifetime.end.p0(i64 1, ptr %17) #11
  call void @llvm.lifetime.end.p0(i64 1, ptr %16) #11
  call void @llvm.lifetime.end.p0(i64 4, ptr %15) #11
  ret i16 %182
}