; Function Attrs: null_pointer_is_valid sspstrong uwtable
define noundef zeroext i16 @de_rr_ch_dsc(ptr noundef %0, ptr noundef %1, ptr readnone captures(none) %2, i32 noundef %3, i32 %4, ptr readnone captures(none) %5, i32 %6) #3 {
  %8 = tail call zeroext i8 @tvb_get_uint8(ptr noundef %0, i32 noundef %3)
  %9 = zext i8 %8 to i32
  %10 = and i32 %9, 248
  %11 = icmp eq i32 %10, 8
  br i1 %11, label %12, label %15

12:                                               ; preds = %7
  %13 = load i32, ptr @hf_gsm_a_rr_tchf_acchs, align 4
  %14 = tail call ptr @proto_tree_add_item(ptr noundef %1, i32 noundef %13, ptr noundef %0, i32 noundef %3, i32 noundef 1, i32 noundef 0)
  br label %38

15:                                               ; preds = %7
  %16 = and i32 %9, 240
  %17 = icmp eq i32 %16, 16
  br i1 %17, label %18, label %21

18:                                               ; preds = %15
  %19 = lshr i8 %8, 3
  %20 = and i8 %19, 1
  br label %33

21:                                               ; preds = %15
  %22 = and i32 %9, 224
  %23 = icmp eq i32 %22, 32
  br i1 %23, label %24, label %27

24:                                               ; preds = %21
  %25 = lshr i8 %8, 3
  %26 = and i8 %25, 3
  br label %33

27:                                               ; preds = %21
  %28 = and i32 %9, 192
  %29 = icmp eq i32 %28, 64
  br i1 %29, label %30, label %33

30:                                               ; preds = %27
  %31 = lshr i8 %8, 3
  %32 = and i8 %31, 7
  br label %33

33:                                               ; preds = %27, %24, %30, %18
  %.060 = phi i8 [ %20, %18 ], [ %26, %24 ], [ %32, %30 ], [ %8, %27 ]
  %.0.in = phi ptr [ @hf_gsm_a_rr_tch_acch, %18 ], [ @hf_gsm_a_rr_sdcch4_sdcchc4_cbch, %24 ], [ @hf_gsm_a_rr_sdcch8_sdcchc8_cbch, %30 ], [ @hf_gsm_a_rr_unknown_channel_info, %27 ]
  %.0 = load i32, ptr %.0.in, align 4
  %34 = tail call ptr @proto_tree_add_item(ptr noundef %1, i32 noundef %.0, ptr noundef %0, i32 noundef %3, i32 noundef 1, i32 noundef 0)
  %35 = load i32, ptr @hf_gsm_a_rr_subchannel, align 4
  %36 = zext i8 %.060 to i32
  %37 = tail call ptr @proto_tree_add_uint(ptr noundef %1, i32 noundef %35, ptr noundef %0, i32 noundef %3, i32 noundef 1, i32 noundef %36)
  br label %38

38:                                               ; preds = %33, %12
  %39 = load i32, ptr @hf_gsm_a_rr_timeslot, align 4
  %40 = tail call ptr @proto_tree_add_item(ptr noundef %1, i32 noundef %39, ptr noundef %0, i32 noundef %3, i32 noundef 1, i32 noundef 0)
  %41 = add i32 %3, 1
  %42 = tail call zeroext i8 @tvb_get_uint8(ptr noundef %0, i32 noundef %41)
  %43 = load i32, ptr @hf_gsm_a_rr_training_sequence, align 4
  %44 = tail call ptr @proto_tree_add_item(ptr noundef %1, i32 noundef %43, ptr noundef %0, i32 noundef %41, i32 noundef 1, i32 noundef 0)
  %45 = load i32, ptr @hf_gsm_a_rr_hopping_channel, align 4
  %46 = tail call ptr @proto_tree_add_item(ptr noundef %1, i32 noundef %45, ptr noundef %0, i32 noundef %41, i32 noundef 1, i32 noundef 0)
  %47 = zext i8 %42 to i32
  %48 = and i32 %47, 16
  %.not = icmp eq i32 %48, 0
  %49 = add i32 %3, 2
  %50 = tail call zeroext i8 @tvb_get_uint8(ptr noundef %0, i32 noundef %49)
  br i1 %.not, label %64, label %51

51:                                               ; preds = %38
  %52 = shl nuw nsw i32 %47, 2
  %53 = and i32 %52, 60
  %54 = lshr i8 %50, 6
  %55 = zext nneg i8 %54 to i32
  %56 = or disjoint i32 %53, %55
  %57 = tail call zeroext i8 @tvb_get_uint8(ptr noundef %0, i32 noundef %49)
  %58 = and i8 %57, 63
  %59 = load i32, ptr @hf_gsm_a_rr_hopping_channel_maio, align 4
  %60 = tail call ptr @proto_tree_add_uint(ptr noundef %1, i32 noundef %59, ptr noundef %0, i32 noundef %41, i32 noundef 2, i32 noundef %56)
  %61 = load i32, ptr @hf_gsm_a_rr_hsn, align 4
  %62 = zext nneg i8 %58 to i32
  %63 = tail call ptr @proto_tree_add_uint(ptr noundef %1, i32 noundef %61, ptr noundef %0, i32 noundef %41, i32 noundef 2, i32 noundef %62)
  br label %75

64:                                               ; preds = %38
  %65 = shl nuw nsw i32 %47, 8
  %66 = and i32 %65, 768
  %67 = zext i8 %50 to i32
  %68 = or disjoint i32 %66, %67
  %69 = load i32, ptr @hf_gsm_a_rr_spare, align 4
  %70 = shl i32 %41, 3
  %71 = or disjoint i32 %70, 4
  %72 = tail call ptr @proto_tree_add_bits_item(ptr noundef %1, i32 noundef %69, ptr noundef %0, i32 noundef %71, i32 noundef 2, i32 noundef 0)
  %73 = load i32, ptr @hf_gsm_a_rr_single_channel_arfcn, align 4
  %74 = tail call ptr @proto_tree_add_uint(ptr noundef %1, i32 noundef %73, ptr noundef %0, i32 noundef %41, i32 noundef 2, i32 noundef %68)
  br label %75

75:                                               ; preds = %64, %51
  ret i16 3
}